target datalayout = "e-m:e-p270:32:32-p271:32:32-p272:64:64-i64:64-i128:128-f80:128-n8:16:32:64-S128"
target triple = "x86_64-pc-linux-gnu"

%struct.pointf_s = type { double, double }

@.str.86 = private unnamed_addr constant [5 x i8] c"\22/>\0A\00", align 1
@.str.117 = private unnamed_addr constant [9 x i8] c"<polygon\00", align 1
@.str.118 = private unnamed_addr constant [10 x i8] c" points=\22\00", align 1

; Function Attrs: nounwind uwtable
define internal void @svg_polygon(ptr noundef %0, ptr noundef %1, i64 noundef %2, i32 noundef %3) #0 {
  %5 = alloca ptr, align 8
  %6 = alloca ptr, align 8
  %7 = alloca i64, align 8
  %8 = alloca i32, align 4
  %9 = alloca i32, align 4
  %10 = alloca i64, align 8
  store ptr %0, ptr %5, align 8, !tbaa !3
  store ptr %1, ptr %6, align 8, !tbaa !114
  store i64 %2, ptr %7, align 8, !tbaa !115
  store i32 %3, ptr %8, align 4, !tbaa !60
  call void @llvm.lifetime.start.p0(i64 4, ptr %9) #9
  store i32 0, ptr %9, align 4, !tbaa !60
  %11 = load i32, ptr %8, align 4, !tbaa !60
  %12 = icmp eq i32 %11, 2
  br i1 %12, label %13, label %18

13:                                               ; preds = %4
  %14 = load ptr, ptr %5, align 8, !tbaa !3
  %15 = load ptr, ptr %6, align 8, !tbaa !114
  %16 = load i64, ptr %7, align 8, !tbaa !115
  %17 = call i32 @svg_gradstyle(ptr noundef %14, ptr noundef %15, i64 noundef %16)
  store i32 %17, ptr %9, align 4, !tbaa !60
  br label %25

18:                                               ; preds = %4
  %19 = load i32, ptr %8, align 4, !tbaa !60
  %20 = icmp eq i32 %19, 3
  br i1 %20, label %21, label %24

21:                                               ; preds = %18
  %22 = load ptr, ptr %5, align 8, !tbaa !3
  %23 = call i32 @svg_rgradstyle(ptr noundef %22)
  store i32 %23, ptr %9, align 4, !tbaa !60
  br label %24

24:                                               ; preds = %21, %18
  br label %25

25:                                               ; preds = %24, %13
  %26 = load ptr, ptr %5, align 8, !tbaa !3
  %27 = call i32 @gvputs(ptr noundef %26, ptr noundef @.str.117)
  %28 = load ptr, ptr %5, align 8, !tbaa !3
  %29 = load i32, ptr %8, align 4, !tbaa !60
  %30 = load i32, ptr %9, align 4, !tbaa !60
  call void @svg_grstyle(ptr noundef %28, i32 noundef %29, i32 noundef %30)
  %31 = load ptr, ptr %5, align 8, !tbaa !3
  %32 = call i32 @gvputs(ptr noundef %31, ptr noundef @.str.118)
  call void @llvm.lifetime.start.p0(i64 8, ptr %10) #9
  store i64 0, ptr %10, align 8, !tbaa !115
  br label %33

33:                                               ; preds = %56, %25
  %34 = load i64, ptr %10, align 8, !tbaa !115
  %35 = load i64, ptr %7, align 8, !tbaa !115
  %36 = icmp ult i64 %34, %35
  br i1 %36, label %38, label %37

37:                                               ; preds = %33
  call void @llvm.lifetime.end.p0(i64 8, ptr %10) #9
  br label %59

38:                                               ; preds = %33
  %39 = load ptr, ptr %5, align 8, !tbaa !3
  %40 = load ptr, ptr %6, align 8, !tbaa !114
  %41 = load i64, ptr %10, align 8, !tbaa !115
  %42 = getelementptr inbounds nuw %struct.pointf_s, ptr %40, i64 %41
  %43 = getelementptr inbounds nuw %struct.pointf_s, ptr %42, i32 0, i32 0
  %44 = load double, ptr %43, align 8, !tbaa !77
  call void @gvprintdouble(ptr noundef %39, double noundef %44)
  %45 = load ptr, ptr %5, align 8, !tbaa !3
  %46 = call i32 @gvputc(ptr noundef %45, i32 noundef 44)
  %47 = load ptr, ptr %5, align 8, !tbaa !3
  %48 = load ptr, ptr %6, align 8, !tbaa !114
  %49 = load i64, ptr %10, align 8, !tbaa !115
  %50 = getelementptr inbounds nuw %struct.pointf_s, ptr %48, i64 %49
  %51 = getelementptr inbounds nuw %struct.pointf_s, ptr %50, i32 0, i32 1
  %52 = load double, ptr %51, align 8, !tbaa !76
  %53 = fneg double %52
  call void @gvprintdouble(ptr noundef %47, double noundef %53)
  %54 = load ptr, ptr %5, align 8, !tbaa !3
  %55 = call i32 @gvputc(ptr noundef %54, i32 noundef 32)
  br label %56

56:                                               ; preds = %38
  %57 = load i64, ptr %10, align 8, !tbaa !115
  %58 = add i64 %57, 1
  store i64 %58, ptr %10, align 8, !tbaa !115
  br label %33, !llvm.loop !116

59:                                               ; preds = %37
  %60 = load ptr, ptr %5, align 8, !tbaa !3
  %61 = load ptr, ptr %6, align 8, !tbaa !114
  %62 = getelementptr inbounds %struct.pointf_s, ptr %61, i64 0
  %63 = getelementptr inbounds nuw %struct.pointf_s, ptr %62, i32 0, i32 0
  %64 = load double, ptr %63, align 8, !tbaa !77
  call void @gvprintdouble(ptr noundef %60, double noundef %64)
  %65 = load ptr, ptr %5, align 8, !tbaa !3
  %66 = call i32 @gvputc(ptr noundef %65, i32 noundef 44)
  %67 = load ptr, ptr %5, align 8, !tbaa !3
  %68 = load ptr, ptr %6, align 8, !tbaa !114
  %69 = getelementptr inbounds %struct.pointf_s, ptr %68, i64 0
  %70 = getelementptr inbounds nuw %struct.pointf_s, ptr %69, i32 0, i32 1
  %71 = load double, ptr %70, align 8, !tbaa !76
  %72 = fneg double %71
  call void @gvprintdouble(ptr noundef %67, double noundef %72)
  %73 = load ptr, ptr %5, align 8, !tbaa !3
  %74 = call i32 @gvputs(ptr noundef %73, ptr noundef @.str.86)
  call void @llvm.lifetime.end.p0(i64 4, ptr %9) #9
  ret void
}