; Function Attrs: nounwind uwtable
define internal void @svg_polygon(ptr noundef %0, ptr noundef %1, i64 noundef %2, i32 noundef %3) #0 {
  switch i32 %3, label %9 [
    i32 2, label %5
    i32 3, label %7
  ]

5:                                                ; preds = %4
  %6 = tail call fastcc i32 @svg_gradstyle(ptr noundef %0, ptr noundef %1, i64 noundef %2)
  br label %9

7:                                                ; preds = %4
  %8 = tail call fastcc i32 @svg_rgradstyle(ptr noundef %0)
  br label %9

9:                                                ; preds = %4, %7, %5
  %.027 = phi i32 [ %6, %5 ], [ %8, %7 ], [ 0, %4 ]
  %10 = tail call i32 @gvputs(ptr noundef %0, ptr noundef nonnull @.str.117) #11
  tail call fastcc void @svg_grstyle(ptr noundef %0, i32 noundef %3, i32 noundef %.027)
  %11 = tail call i32 @gvputs(ptr noundef %0, ptr noundef nonnull @.str.118) #11
  %.not = icmp eq i64 %2, 0
  br i1 %.not, label %._crit_edge, label %.lr.ph

._crit_edge:                                      ; preds = %.lr.ph, %9
  %12 = load double, ptr %1, align 8, !tbaa !102
  tail call void @gvprintdouble(ptr noundef %0, double noundef %12) #11
  %13 = tail call i32 @gvputc(ptr noundef %0, i32 noundef 44) #11
  %14 = getelementptr inbounds nuw i8, ptr %1, i64 8
  %15 = load double, ptr %14, align 8, !tbaa !103
  %16 = fneg double %15
  tail call void @gvprintdouble(ptr noundef %0, double noundef %16) #11
  %17 = tail call i32 @gvputs(ptr noundef %0, ptr noundef nonnull @.str.86) #11
  ret void

.lr.ph:                                           ; preds = %9, %.lr.ph
  %.029 = phi i64 [ %25, %.lr.ph ], [ 0, %9 ]
  %18 = getelementptr inbounds nuw %struct.pointf_s, ptr %1, i64 %.029
  %19 = load double, ptr %18, align 8, !tbaa !102
  tail call void @gvprintdouble(ptr noundef %0, double noundef %19) #11
  %20 = tail call i32 @gvputc(ptr noundef %0, i32 noundef 44) #11
  %21 = getelementptr inbounds nuw i8, ptr %18, i64 8
  %22 = load double, ptr %21, align 8, !tbaa !103
  %23 = fneg double %22
  tail call void @gvprintdouble(ptr noundef %0, double noundef %23) #11
  %24 = tail call i32 @gvputc(ptr noundef %0, i32 noundef 32) #11
  %25 = add nuw i64 %.029, 1
  %exitcond.not = icmp eq i64 %25, %2
  br i1 %exitcond.not, label %._crit_edge, label %.lr.ph, !llvm.loop !104
}